; ModuleID = '58/1187.c'
source_filename = "58/1187.c"
target datalayout = "e-m:e-p270:32:32-p271:32:32-p272:64:64-i64:64-f80:128-n8:16:32:64-S128"
target triple = "x86_64-pc-linux-gnu"

@.str = private unnamed_addr constant [4 x i8] c"%d\0A\00", align 1
@.str.1 = private unnamed_addr constant [3 x i8] c"0\0A\00", align 1
@.str.2 = private unnamed_addr constant [3 x i8] c"1\0A\00", align 1

; Function Attrs: noinline nounwind uwtable
define dso_local i32 @main() #0 {
  %1 = alloca i32, align 4
  %2 = alloca [81 x i8]*, align 8
  %3 = alloca i32, align 4
  %4 = alloca [81 x i8]*, align 8
  %5 = alloca i32, align 4
  %6 = alloca i8*, align 8
  store i32 0, i32* %1, align 4
  %7 = call i32 (i8*, ...) @__isoc99_scanf(i8* getelementptr inbounds ([4 x i8], [4 x i8]* @.str, i64 0, i64 0), i32* %3)
  %8 = load i32, i32* %3, align 4
  %9 = sext i32 %8 to i64
  %10 = mul i64 %9, 81
  %11 = call noalias i8* @malloc(i64 %10) #3
  %12 = bitcast i8* %11 to [81 x i8]*
  store [81 x i8]* %12, [81 x i8]** %2, align 8
  %13 = load [81 x i8]*, [81 x i8]** %2, align 8
  store [81 x i8]* %13, [81 x i8]** %4, align 8
  store i32 0, i32* %5, align 4
  br label %14

14:                                               ; preds = %24, %0
  %15 = load i32, i32* %5, align 4
  %16 = load i32, i32* %3, align 4
  %17 = icmp slt i32 %15, %16
  br i1 %17, label %18, label %27

18:                                               ; preds = %14
  %19 = load [81 x i8]*, [81 x i8]** %2, align 8
  %20 = getelementptr inbounds [81 x i8], [81 x i8]* %19, i64 0, i64 0
  %21 = call i32 (i8*, ...) bitcast (i32 (...)* @gets to i32 (i8*, ...)*)(i8* %20)
  %22 = load [81 x i8]*, [81 x i8]** %2, align 8
  %23 = getelementptr inbounds [81 x i8], [81 x i8]* %22, i32 1
  store [81 x i8]* %23, [81 x i8]** %2, align 8
  br label %24

24:                                               ; preds = %18
  %25 = load i32, i32* %5, align 4
  %26 = add nsw i32 %25, 1
  store i32 %26, i32* %5, align 4
  br label %14

27:                                               ; preds = %14
  %28 = load [81 x i8]*, [81 x i8]** %4, align 8
  store [81 x i8]* %28, [81 x i8]** %2, align 8
  store i32 0, i32* %5, align 4
  br label %29

29:                                               ; preds = %124, %27
  %30 = load i32, i32* %5, align 4
  %31 = load i32, i32* %3, align 4
  %32 = icmp slt i32 %30, %31
  br i1 %32, label %33, label %127

33:                                               ; preds = %29
  %34 = load [81 x i8]*, [81 x i8]** %2, align 8
  %35 = getelementptr inbounds [81 x i8], [81 x i8]* %34, i64 0, i64 0
  %36 = load i8, i8* %35, align 1
  %37 = sext i8 %36 to i32
  %38 = icmp eq i32 %37, 95
  br i1 %38, label %63, label %39

39:                                               ; preds = %33
  %40 = load [81 x i8]*, [81 x i8]** %2, align 8
  %41 = getelementptr inbounds [81 x i8], [81 x i8]* %40, i64 0, i64 0
  %42 = load i8, i8* %41, align 1
  %43 = sext i8 %42 to i32
  %44 = icmp sge i32 %43, 97
  br i1 %44, label %45, label %51

45:                                               ; preds = %39
  %46 = load [81 x i8]*, [81 x i8]** %2, align 8
  %47 = getelementptr inbounds [81 x i8], [81 x i8]* %46, i64 0, i64 0
  %48 = load i8, i8* %47, align 1
  %49 = sext i8 %48 to i32
  %50 = icmp sle i32 %49, 122
  br i1 %50, label %63, label %51

51:                                               ; preds = %45, %39
  %52 = load [81 x i8]*, [81 x i8]** %2, align 8
  %53 = getelementptr inbounds [81 x i8], [81 x i8]* %52, i64 0, i64 0
  %54 = load i8, i8* %53, align 1
  %55 = sext i8 %54 to i32
  %56 = icmp sge i32 %55, 65
  br i1 %56, label %57, label %119

57:                                               ; preds = %51
  %58 = load [81 x i8]*, [81 x i8]** %2, align 8
  %59 = getelementptr inbounds [81 x i8], [81 x i8]* %58, i64 0, i64 0
  %60 = load i8, i8* %59, align 1
  %61 = sext i8 %60 to i32
  %62 = icmp sle i32 %61, 90
  br i1 %62, label %63, label %119

63:                                               ; preds = %57, %45, %33
  %64 = load [81 x i8]*, [81 x i8]** %2, align 8
  %65 = getelementptr inbounds [81 x i8], [81 x i8]* %64, i64 0, i64 0
  store i8* %65, i8** %6, align 8
  br label %66

66:                                               ; preds = %108, %63
  %67 = load i8*, i8** %6, align 8
  %68 = load i8, i8* %67, align 1
  %69 = sext i8 %68 to i32
  %70 = icmp ne i32 %69, 0
  br i1 %70, label %71, label %111

71:                                               ; preds = %66
  %72 = load i8*, i8** %6, align 8
  %73 = load i8, i8* %72, align 1
  %74 = sext i8 %73 to i32
  %75 = icmp sge i32 %74, 48
  br i1 %75, label %76, label %81

76:                                               ; preds = %71
  %77 = load i8*, i8** %6, align 8
  %78 = load i8, i8* %77, align 1
  %79 = sext i8 %78 to i32
  %80 = icmp sle i32 %79, 57
  br i1 %80, label %108, label %81

81:                                               ; preds = %76, %71
  %82 = load i8*, i8** %6, align 8
  %83 = load i8, i8* %82, align 1
  %84 = sext i8 %83 to i32
  %85 = icmp sge i32 %84, 97
  br i1 %85, label %86, label %91

86:                                               ; preds = %81
  %87 = load i8*, i8** %6, align 8
  %88 = load i8, i8* %87, align 1
  %89 = sext i8 %88 to i32
  %90 = icmp sle i32 %89, 122
  br i1 %90, label %108, label %91

91:                                               ; preds = %86, %81
  %92 = load i8*, i8** %6, align 8
  %93 = load i8, i8* %92, align 1
  %94 = sext i8 %93 to i32
  %95 = icmp sge i32 %94, 65
  br i1 %95, label %96, label %101

96:                                               ; preds = %91
  %97 = load i8*, i8** %6, align 8
  %98 = load i8, i8* %97, align 1
  %99 = sext i8 %98 to i32
  %100 = icmp sle i32 %99, 90
  br i1 %100, label %108, label %101

101:                                              ; preds = %96, %91
  %102 = load i8*, i8** %6, align 8
  %103 = load i8, i8* %102, align 1
  %104 = sext i8 %103 to i32
  %105 = icmp eq i32 %104, 95
  br i1 %105, label %108, label %106

106:                                              ; preds = %101
  %107 = call i32 (i8*, ...) @printf(i8* getelementptr inbounds ([3 x i8], [3 x i8]* @.str.1, i64 0, i64 0))
  br label %111

108:                                              ; preds = %101, %96, %86, %76
  %109 = load i8*, i8** %6, align 8
  %110 = getelementptr inbounds i8, i8* %109, i32 1
  store i8* %110, i8** %6, align 8
  br label %66

111:                                              ; preds = %106, %66
  %112 = load i8*, i8** %6, align 8
  %113 = load i8, i8* %112, align 1
  %114 = sext i8 %113 to i32
  %115 = icmp eq i32 %114, 0
  br i1 %115, label %116, label %118

116:                                              ; preds = %111
  %117 = call i32 (i8*, ...) @printf(i8* getelementptr inbounds ([3 x i8], [3 x i8]* @.str.2, i64 0, i64 0))
  br label %118

118:                                              ; preds = %116, %111
  br label %121

119:                                              ; preds = %57, %51
  %120 = call i32 (i8*, ...) @printf(i8* getelementptr inbounds ([3 x i8], [3 x i8]* @.str.1, i64 0, i64 0))
  br label %121

121:                                              ; preds = %119, %118
  %122 = load [81 x i8]*, [81 x i8]** %2, align 8
  %123 = getelementptr inbounds [81 x i8], [81 x i8]* %122, i32 1
  store [81 x i8]* %123, [81 x i8]** %2, align 8
  br label %124

124:                                              ; preds = %121
  %125 = load i32, i32* %5, align 4
  %126 = add nsw i32 %125, 1
  store i32 %126, i32* %5, align 4
  br label %29

127:                                              ; preds = %29
  ret i32 0
}

declare dso_local i32 @__isoc99_scanf(i8*, ...) #1

; Function Attrs: nounwind
declare dso_local noalias i8* @malloc(i64) #2

declare dso_local i32 @gets(...) #1

declare dso_local i32 @printf(i8*, ...) #1


!llvm.module.flags = !{!0}
!llvm.ident = !{!1}

!0 = !{i32 1, !"wchar_size", i32 4}
!1 = !{!"clang version 10.0.0-4ubuntu1 "}
